; Function Attrs: mustprogress uwtable
define void @_ZN3zmq8object_t11send_attachEPNS_14session_base_tEPNS_8i_engineEb(ptr noundef nonnull readonly align 8 captures(none) dereferenceable(20) %0, ptr noundef %1, ptr noundef %2, i1 noundef zeroext %3) local_unnamed_addr #6 align 2 {
  %5 = alloca %"struct.zmq::command_t", align 64
  br i1 %3, label %6, label %7

6:                                                ; preds = %4
  tail call void @_ZN3zmq5own_t10inc_seqnumEv(ptr noundef nonnull align 8 dereferenceable(1444) %1)
  br label %7

7:                                                ; preds = %6, %4
  call void @llvm.lifetime.start.p0(i64 64, ptr nonnull %5) #11
  store ptr %1, ptr %5, align 64, !tbaa !20
  %8 = getelementptr inbounds nuw i8, ptr %5, i64 8
  store i32 3, ptr %8, align 8, !tbaa !13
  %9 = getelementptr inbounds nuw i8, ptr %5, i64 16
  store ptr %2, ptr %9, align 16, !tbaa !17
  %10 = getelementptr inbounds nuw i8, ptr %0, i64 8
  %11 = load ptr, ptr %10, align 8, !tbaa !6
  %12 = getelementptr inbounds nuw i8, ptr %1, i64 16
  %13 = load i32, ptr %12, align 8, !tbaa !12
  call void @_ZN3zmq5ctx_t12send_commandEjRKNS_9command_tE(ptr noundef nonnull align 8 dereferenceable(648) %11, i32 noundef %13, ptr noundef nonnull align 64 dereferenceable(64) %5)
  call void @llvm.lifetime.end.p0(i64 64, ptr nonnull %5) #11
  ret void
}